target datalayout = "e-m:e-p270:32:32-p271:32:32-p272:64:64-i64:64-i128:128-f80:128-n8:16:32:64-S128"
target triple = "x86_64-pc-linux-gnu"

%class.UatFrame = type { %class.QFrame, ptr, ptr, ptr, ptr }
%class.QFrame = type { %class.QWidget }
%class.QWidget = type { %class.QObject, %class.QPaintDevice.base, ptr }
%class.QObject = type { ptr, %class.QScopedPointer }
%class.QScopedPointer = type { ptr }
%class.QPaintDevice.base = type <{ ptr, i16 }>
%class.Ui_UatFrame = type { ptr, ptr, ptr, ptr, ptr, ptr, ptr, ptr, ptr, ptr, ptr, ptr }
%class.QModelIndex = type { i32, i32, i64, ptr }

; Function Attrs: inlinehint mustprogress nounwind null_pointer_is_valid sspstrong uwtable
define linkonce_odr void @_ZN11QModelIndexC2Ev(ptr noundef align 8 dereferenceable_or_null(24) %0) unnamed_addr #1 comdat align 2 {
  %2 = alloca ptr, align 8
  store ptr %0, ptr %2, align 8
  %3 = load ptr, ptr %2, align 8
  %4 = getelementptr inbounds nuw %class.QModelIndex, ptr %3, i32 0, i32 0
  store i32 -1, ptr %4, align 8
  %5 = getelementptr inbounds nuw %class.QModelIndex, ptr %3, i32 0, i32 1
  store i32 -1, ptr %5, align 4
  %6 = getelementptr inbounds nuw %class.QModelIndex, ptr %3, i32 0, i32 2
  store i64 0, ptr %6, align 8
  %7 = getelementptr inbounds nuw %class.QModelIndex, ptr %3, i32 0, i32 3
  store ptr null, ptr %7, align 8
  ret void
}

; Function Attrs: inlinehint mustprogress nounwind null_pointer_is_valid sspstrong uwtable
define linkonce_odr noundef i32 @_ZNK11QModelIndex3rowEv(ptr noundef align 8 dereferenceable_or_null(24) %0) #1 comdat align 2 {
  %2 = alloca ptr, align 8
  store ptr %0, ptr %2, align 8
  %3 = load ptr, ptr %2, align 8
  %4 = getelementptr inbounds nuw %class.QModelIndex, ptr %3, i32 0, i32 0
  %5 = load i32, ptr %4, align 8
  ret i32 %5
}

; Function Attrs: inlinehint mustprogress nounwind null_pointer_is_valid sspstrong uwtable
define linkonce_odr noundef zeroext i1 @_ZNK11QModelIndex7isValidEv(ptr noundef align 8 dereferenceable_or_null(24) %0) #1 comdat align 2 {
  %2 = alloca ptr, align 8
  store ptr %0, ptr %2, align 8
  %3 = load ptr, ptr %2, align 8
  %4 = getelementptr inbounds nuw %class.QModelIndex, ptr %3, i32 0, i32 0
  %5 = load i32, ptr %4, align 8
  %6 = icmp sge i32 %5, 0
  br i1 %6, label %7, label %15

7:                                                ; preds = %1
  %8 = getelementptr inbounds nuw %class.QModelIndex, ptr %3, i32 0, i32 1
  %9 = load i32, ptr %8, align 4
  %10 = icmp sge i32 %9, 0
  br i1 %10, label %11, label %15

11:                                               ; preds = %7
  %12 = getelementptr inbounds nuw %class.QModelIndex, ptr %3, i32 0, i32 3
  %13 = load ptr, ptr %12, align 8
  %14 = icmp ne ptr %13, null
  br label %15

15:                                               ; preds = %11, %7, %1
  %16 = phi i1 [ false, %7 ], [ false, %1 ], [ %14, %11 ]
  ret i1 %16
}

; Function Attrs: mustprogress null_pointer_is_valid sspstrong uwtable
define void @_ZN8UatFrame17checkForErrorHintERK11QModelIndexS2_(ptr noundef align 8 dereferenceable_or_null(72) %0, ptr noundef align 8 dereferenceable(24) %1, ptr noundef align 8 dereferenceable(24) %2) #0 align 2 {
  %4 = alloca ptr, align 8
  %5 = alloca ptr, align 8
  %6 = alloca ptr, align 8
  %7 = alloca i32, align 4
  %8 = alloca i32, align 4
  %9 = alloca i32, align 4
  %10 = alloca %class.QModelIndex, align 8
  %11 = alloca %class.QModelIndex, align 8
  %12 = alloca %class.QModelIndex, align 8
  store ptr %0, ptr %4, align 8
  store ptr %1, ptr %5, align 8
  store ptr %2, ptr %6, align 8
  %13 = load ptr, ptr %4, align 8
  %14 = load ptr, ptr %5, align 8
  %15 = call noundef zeroext i1 @_ZNK11QModelIndex7isValidEv(ptr noundef align 8 dereferenceable_or_null(24) %14) #22
  br i1 %15, label %16, label %62

16:                                               ; preds = %3
  %17 = load ptr, ptr %5, align 8
  %18 = call noundef zeroext i1 @_ZN8UatFrame24trySetErrorHintFromFieldERK11QModelIndex(ptr noundef align 8 dereferenceable_or_null(72) %13, ptr noundef align 8 dereferenceable(24) %17)
  br i1 %18, label %19, label %20

19:                                               ; preds = %16
  br label %75

20:                                               ; preds = %16
  call void @llvm.lifetime.start.p0(i64 4, ptr %7) #22
  %21 = load ptr, ptr %5, align 8
  %22 = call noundef i32 @_ZNK11QModelIndex3rowEv(ptr noundef align 8 dereferenceable_or_null(24) %21) #22
  store i32 %22, ptr %7, align 4
  %23 = load i32, ptr %7, align 4
  %24 = load ptr, ptr %6, align 8
  %25 = call noundef i32 @_ZNK11QModelIndex3rowEv(ptr noundef align 8 dereferenceable_or_null(24) %24) #22
  %26 = icmp eq i32 %23, %25
  br i1 %26, label %27, label %31

27:                                               ; preds = %20
  %28 = load ptr, ptr %6, align 8
  %29 = call noundef zeroext i1 @_ZN8UatFrame24trySetErrorHintFromFieldERK11QModelIndex(ptr noundef align 8 dereferenceable_or_null(72) %13, ptr noundef align 8 dereferenceable(24) %28)
  br i1 %29, label %30, label %31

30:                                               ; preds = %27
  store i32 1, ptr %8, align 4
  br label %59

31:                                               ; preds = %27, %20
  call void @llvm.lifetime.start.p0(i64 4, ptr %9) #22
  store i32 0, ptr %9, align 4
  br label %32

32:                                               ; preds = %53, %31
  %33 = load i32, ptr %9, align 4
  %34 = getelementptr inbounds nuw %class.UatFrame, ptr %13, i32 0, i32 2
  %35 = load ptr, ptr %34, align 8
  call void @llvm.lifetime.start.p0(i64 24, ptr %10) #22
  call void @_ZN11QModelIndexC2Ev(ptr noundef align 8 dereferenceable_or_null(24) %10) #22
  %36 = load ptr, ptr %35, align 8
  %37 = getelementptr inbounds ptr, ptr %36, i64 16
  %38 = load ptr, ptr %37, align 8
  %39 = call noundef i32 %38(ptr noundef align 8 dereferenceable_or_null(80) %35, ptr noundef align 8 dereferenceable(24) %10)
  %40 = icmp slt i32 %33, %39
  call void @llvm.lifetime.end.p0(i64 24, ptr %10) #22
  br i1 %40, label %42, label %41

41:                                               ; preds = %32
  store i32 2, ptr %8, align 4
  br label %56

42:                                               ; preds = %32
  call void @llvm.lifetime.start.p0(i64 24, ptr %11) #22
  %43 = getelementptr inbounds nuw %class.UatFrame, ptr %13, i32 0, i32 2
  %44 = load ptr, ptr %43, align 8
  %45 = load i32, ptr %7, align 4
  %46 = load i32, ptr %9, align 4
  call void @llvm.lifetime.start.p0(i64 24, ptr %12) #22
  call void @_ZN11QModelIndexC2Ev(ptr noundef align 8 dereferenceable_or_null(24) %12) #22
  %47 = load ptr, ptr %44, align 8
  %48 = getelementptr inbounds ptr, ptr %47, i64 12
  %49 = load ptr, ptr %48, align 8
  call void %49(ptr dead_on_unwind writable sret(%class.QModelIndex) align 8 %11, ptr noundef align 8 dereferenceable_or_null(16) %44, i32 noundef %45, i32 noundef %46, ptr noundef align 8 dereferenceable(24) %12)
  %50 = call noundef zeroext i1 @_ZN8UatFrame24trySetErrorHintFromFieldERK11QModelIndex(ptr noundef align 8 dereferenceable_or_null(72) %13, ptr noundef align 8 dereferenceable(24) %11)
  call void @llvm.lifetime.end.p0(i64 24, ptr %12) #22
  call void @llvm.lifetime.end.p0(i64 24, ptr %11) #22
  br i1 %50, label %51, label %52

51:                                               ; preds = %42
  store i32 1, ptr %8, align 4
  br label %56

52:                                               ; preds = %42
  br label %53

53:                                               ; preds = %52
  %54 = load i32, ptr %9, align 4
  %55 = add i32 %54, 1
  store i32 %55, ptr %9, align 4
  br label %32, !llvm.loop !10

56:                                               ; preds = %51, %41
  call void @llvm.lifetime.end.p0(i64 4, ptr %9) #22
  %57 = load i32, ptr %8, align 4
  switch i32 %57, label %59 [
    i32 2, label %58
  ]

58:                                               ; preds = %56
  store i32 0, ptr %8, align 4
  br label %59

59:                                               ; preds = %58, %56, %30
  call void @llvm.lifetime.end.p0(i64 4, ptr %7) #22
  %60 = load i32, ptr %8, align 4
  switch i32 %60, label %76 [
    i32 0, label %61
    i32 1, label %75
  ]

61:                                               ; preds = %59
  br label %62

62:                                               ; preds = %61, %3
  %63 = load ptr, ptr %6, align 8
  %64 = call noundef zeroext i1 @_ZNK11QModelIndex7isValidEv(ptr noundef align 8 dereferenceable_or_null(24) %63) #22
  br i1 %64, label %65, label %70

65:                                               ; preds = %62
  %66 = load ptr, ptr %6, align 8
  %67 = call noundef zeroext i1 @_ZN8UatFrame24trySetErrorHintFromFieldERK11QModelIndex(ptr noundef align 8 dereferenceable_or_null(72) %13, ptr noundef align 8 dereferenceable(24) %66)
  br i1 %67, label %68, label %69

68:                                               ; preds = %65
  br label %75

69:                                               ; preds = %65
  br label %70

70:                                               ; preds = %69, %62
  %71 = getelementptr inbounds nuw %class.UatFrame, ptr %13, i32 0, i32 1
  %72 = load ptr, ptr %71, align 8
  %73 = getelementptr inbounds nuw %class.Ui_UatFrame, ptr %72, i32 0, i32 2
  %74 = load ptr, ptr %73, align 8
  call void @_ZN6QLabel5clearEv(ptr noundef align 8 dereferenceable_or_null(40) %74)
  br label %75

75:                                               ; preds = %70, %68, %59, %19
  ret void

76:                                               ; preds = %59
  unreachable
}